target datalayout = "e-m:e-p270:32:32-p271:32:32-p272:64:64-i64:64-i128:128-f80:128-n8:16:32:64-S128"
target triple = "x86_64-pc-linux-gnu"

; Function Attrs: inlinehint nounwind sspstrong willreturn memory(none) uwtable
define internal i64 @rbimpl_fix2long_by_idiv(i64 noundef %0) #4 {
  %2 = alloca i64, align 8
  %3 = alloca i64, align 8
  %4 = alloca i64, align 8
  %5 = alloca i64, align 8
  store i64 %0, ptr %2, align 8, !tbaa !7
  call void @llvm.lifetime.start.p0(i64 8, ptr %3) #18
  %6 = load i64, ptr %2, align 8, !tbaa !7
  %7 = sub i64 %6, 1
  store i64 %7, ptr %3, align 8, !tbaa !7
  call void @llvm.lifetime.start.p0(i64 8, ptr %4) #18
  %8 = load i64, ptr %3, align 8, !tbaa !7
  %9 = sdiv i64 %8, 2
  store i64 %9, ptr %4, align 8, !tbaa !7
  call void @llvm.lifetime.start.p0(i64 8, ptr %5) #18
  %10 = load i64, ptr %4, align 8, !tbaa !7
  store i64 %10, ptr %5, align 8, !tbaa !7
  %11 = load i64, ptr %5, align 8, !tbaa !7
  call void @llvm.lifetime.end.p0(i64 8, ptr %5) #18
  call void @llvm.lifetime.end.p0(i64 8, ptr %4) #18
  call void @llvm.lifetime.end.p0(i64 8, ptr %3) #18
  ret i64 %11
}

; Function Attrs: inlinehint nounwind sspstrong willreturn memory(none) uwtable
define internal i64 @rbimpl_fix2long_by_shift(i64 noundef %0) #4 {
  %2 = alloca i64, align 8
  %3 = alloca i64, align 8
  %4 = alloca i64, align 8
  %5 = alloca i64, align 8
  store i64 %0, ptr %2, align 8, !tbaa !7
  call void @llvm.lifetime.start.p0(i64 8, ptr %3) #18
  %6 = load i64, ptr %2, align 8, !tbaa !7
  store i64 %6, ptr %3, align 8, !tbaa !7
  call void @llvm.lifetime.start.p0(i64 8, ptr %4) #18
  %7 = load i64, ptr %3, align 8, !tbaa !7
  %8 = ashr i64 %7, 1
  store i64 %8, ptr %4, align 8, !tbaa !7
  call void @llvm.lifetime.start.p0(i64 8, ptr %5) #18
  %9 = load i64, ptr %4, align 8, !tbaa !7
  store i64 %9, ptr %5, align 8, !tbaa !7
  %10 = load i64, ptr %5, align 8, !tbaa !7
  call void @llvm.lifetime.end.p0(i64 8, ptr %5) #18
  call void @llvm.lifetime.end.p0(i64 8, ptr %4) #18
  call void @llvm.lifetime.end.p0(i64 8, ptr %3) #18
  ret i64 %10
}

; Function Attrs: inlinehint nounwind sspstrong willreturn memory(none) uwtable
define internal zeroext i1 @rbimpl_right_shift_is_arithmetic_p() #4 {
  ret i1 true
}

; Function Attrs: inlinehint nounwind sspstrong willreturn memory(none) uwtable
define internal i64 @rb_fix2long(i64 noundef %0) #4 {
  %2 = alloca i64, align 8
  %3 = alloca i64, align 8
  store i64 %0, ptr %3, align 8, !tbaa !7
  %4 = call zeroext i1 @rbimpl_right_shift_is_arithmetic_p() #19
  br i1 %4, label %5, label %8

5:                                                ; preds = %1
  %6 = load i64, ptr %3, align 8, !tbaa !7
  %7 = call i64 @rbimpl_fix2long_by_shift(i64 noundef %6) #19
  store i64 %7, ptr %2, align 8
  br label %11

8:                                                ; preds = %1
  %9 = load i64, ptr %3, align 8, !tbaa !7
  %10 = call i64 @rbimpl_fix2long_by_idiv(i64 noundef %9) #19
  store i64 %10, ptr %2, align 8
  br label %11

11:                                               ; preds = %8, %5
  %12 = load i64, ptr %2, align 8
  ret i64 %12
}

; Function Attrs: inlinehint nounwind sspstrong willreturn memory(none) uwtable
define internal zeroext i1 @RB_FIXNUM_P(i64 noundef %0) #4 {
  %2 = alloca i64, align 8
  store i64 %0, ptr %2, align 8, !tbaa !7
  %3 = load i64, ptr %2, align 8, !tbaa !7
  %4 = and i64 %3, 1
  %5 = icmp ne i64 %4, 0
  ret i1 %5
}

; Function Attrs: inlinehint nounwind sspstrong uwtable
define internal i64 @rb_num2long_inline(i64 noundef %0) #3 {
  %2 = alloca i64, align 8
  %3 = alloca i64, align 8
  store i64 %0, ptr %3, align 8, !tbaa !7
  %4 = load i64, ptr %3, align 8, !tbaa !7
  %5 = call zeroext i1 @RB_FIXNUM_P(i64 noundef %4) #19
  br i1 %5, label %6, label %9

6:                                                ; preds = %1
  %7 = load i64, ptr %3, align 8, !tbaa !7
  %8 = call i64 @rb_fix2long(i64 noundef %7) #19
  store i64 %8, ptr %2, align 8
  br label %12

9:                                                ; preds = %1
  %10 = load i64, ptr %3, align 8, !tbaa !7
  %11 = call i64 @rb_num2long(i64 noundef %10)
  store i64 %11, ptr %2, align 8
  br label %12

12:                                               ; preds = %9, %6
  %13 = load i64, ptr %2, align 8
  ret i64 %13
}

; Function Attrs: inlinehint nounwind sspstrong willreturn memory(none) uwtable
define internal zeroext i1 @RB_NIL_P(i64 noundef %0) #4 {
  %2 = alloca i64, align 8
  store i64 %0, ptr %2, align 8, !tbaa !7
  %3 = load i64, ptr %2, align 8, !tbaa !7
  %4 = icmp eq i64 %3, 4
  ret i1 %4
}

; Function Attrs: nounwind sspstrong uwtable
define hidden i64 @rb_range_component_beg_len(i64 noundef %0, i64 noundef %1, i32 noundef %2, ptr noundef %3, ptr noundef %4, i64 noundef %5, i32 noundef %6) #0 {
  %8 = alloca i64, align 8
  %9 = alloca i64, align 8
  %10 = alloca i64, align 8
  %11 = alloca i32, align 4
  %12 = alloca ptr, align 8
  %13 = alloca ptr, align 8
  %14 = alloca i64, align 8
  %15 = alloca i32, align 4
  %16 = alloca i64, align 8
  %17 = alloca i64, align 8
  %18 = alloca i32, align 4
  store i64 %0, ptr %9, align 8, !tbaa !7
  store i64 %1, ptr %10, align 8, !tbaa !7
  store i32 %2, ptr %11, align 4, !tbaa !11
  store ptr %3, ptr %12, align 8, !tbaa !13
  store ptr %4, ptr %13, align 8, !tbaa !13
  store i64 %5, ptr %14, align 8, !tbaa !7
  store i32 %6, ptr %15, align 4, !tbaa !11
  call void @llvm.lifetime.start.p0(i64 8, ptr %16) #18
  call void @llvm.lifetime.start.p0(i64 8, ptr %17) #18
  %19 = load i64, ptr %9, align 8, !tbaa !7
  %20 = call zeroext i1 @RB_NIL_P(i64 noundef %19) #19
  br i1 %20, label %21, label %22

21:                                               ; preds = %7
  br label %25

22:                                               ; preds = %7
  %23 = load i64, ptr %9, align 8, !tbaa !7
  %24 = call i64 @rb_num2long_inline(i64 noundef %23)
  br label %25

25:                                               ; preds = %22, %21
  %26 = phi i64 [ 0, %21 ], [ %24, %22 ]
  store i64 %26, ptr %16, align 8, !tbaa !7
  %27 = load i64, ptr %10, align 8, !tbaa !7
  %28 = call zeroext i1 @RB_NIL_P(i64 noundef %27) #19
  br i1 %28, label %29, label %30

29:                                               ; preds = %25
  br label %33

30:                                               ; preds = %25
  %31 = load i64, ptr %10, align 8, !tbaa !7
  %32 = call i64 @rb_num2long_inline(i64 noundef %31)
  br label %33

33:                                               ; preds = %30, %29
  %34 = phi i64 [ -1, %29 ], [ %32, %30 ]
  store i64 %34, ptr %17, align 8, !tbaa !7
  %35 = load i64, ptr %10, align 8, !tbaa !7
  %36 = call zeroext i1 @RB_NIL_P(i64 noundef %35) #19
  br i1 %36, label %37, label %38

37:                                               ; preds = %33
  store i32 0, ptr %11, align 4, !tbaa !11
  br label %38

38:                                               ; preds = %37, %33
  %39 = load i64, ptr %16, align 8, !tbaa !7
  %40 = icmp slt i64 %39, 0
  br i1 %40, label %41, label %49

41:                                               ; preds = %38
  %42 = load i64, ptr %14, align 8, !tbaa !7
  %43 = load i64, ptr %16, align 8, !tbaa !7
  %44 = add i64 %43, %42
  store i64 %44, ptr %16, align 8, !tbaa !7
  %45 = load i64, ptr %16, align 8, !tbaa !7
  %46 = icmp slt i64 %45, 0
  br i1 %46, label %47, label %48

47:                                               ; preds = %41
  br label %92

48:                                               ; preds = %41
  br label %49

49:                                               ; preds = %48, %38
  %50 = load i64, ptr %17, align 8, !tbaa !7
  %51 = icmp slt i64 %50, 0
  br i1 %51, label %52, label %56

52:                                               ; preds = %49
  %53 = load i64, ptr %14, align 8, !tbaa !7
  %54 = load i64, ptr %17, align 8, !tbaa !7
  %55 = add i64 %54, %53
  store i64 %55, ptr %17, align 8, !tbaa !7
  br label %56

56:                                               ; preds = %52, %49
  %57 = load i32, ptr %11, align 4, !tbaa !11
  %58 = icmp ne i32 %57, 0
  br i1 %58, label %62, label %59

59:                                               ; preds = %56
  %60 = load i64, ptr %17, align 8, !tbaa !7
  %61 = add i64 %60, 1
  store i64 %61, ptr %17, align 8, !tbaa !7
  br label %62

62:                                               ; preds = %59, %56
  %63 = load i32, ptr %15, align 4, !tbaa !11
  %64 = icmp eq i32 %63, 0
  br i1 %64, label %68, label %65

65:                                               ; preds = %62
  %66 = load i32, ptr %15, align 4, !tbaa !11
  %67 = icmp eq i32 %66, 2
  br i1 %67, label %68, label %80

68:                                               ; preds = %65, %62
  %69 = load i64, ptr %16, align 8, !tbaa !7
  %70 = load i64, ptr %14, align 8, !tbaa !7
  %71 = icmp sgt i64 %69, %70
  br i1 %71, label %72, label %73

72:                                               ; preds = %68
  br label %92

73:                                               ; preds = %68
  %74 = load i64, ptr %17, align 8, !tbaa !7
  %75 = load i64, ptr %14, align 8, !tbaa !7
  %76 = icmp sgt i64 %74, %75
  br i1 %76, label %77, label %79

77:                                               ; preds = %73
  %78 = load i64, ptr %14, align 8, !tbaa !7
  store i64 %78, ptr %17, align 8, !tbaa !7
  br label %79

79:                                               ; preds = %77, %73
  br label %80

80:                                               ; preds = %79, %65
  %81 = load i64, ptr %17, align 8, !tbaa !7
  %82 = load i64, ptr %16, align 8, !tbaa !7
  %83 = sub i64 %81, %82
  store i64 %83, ptr %14, align 8, !tbaa !7
  %84 = load i64, ptr %14, align 8, !tbaa !7
  %85 = icmp slt i64 %84, 0
  br i1 %85, label %86, label %87

86:                                               ; preds = %80
  store i64 0, ptr %14, align 8, !tbaa !7
  br label %87

87:                                               ; preds = %86, %80
  %88 = load i64, ptr %16, align 8, !tbaa !7
  %89 = load ptr, ptr %12, align 8, !tbaa !13
  store i64 %88, ptr %89, align 8, !tbaa !7
  %90 = load i64, ptr %14, align 8, !tbaa !7
  %91 = load ptr, ptr %13, align 8, !tbaa !13
  store i64 %90, ptr %91, align 8, !tbaa !7
  store i64 20, ptr %8, align 8
  store i32 1, ptr %18, align 4
  br label %93

92:                                               ; preds = %72, %47
  store i64 4, ptr %8, align 8
  store i32 1, ptr %18, align 4
  br label %93

93:                                               ; preds = %92, %87
  call void @llvm.lifetime.end.p0(i64 8, ptr %17) #18
  call void @llvm.lifetime.end.p0(i64 8, ptr %16) #18
  %94 = load i64, ptr %8, align 8
  ret i64 %94
}