; Function Attrs: nounwind sspstrong uwtable
define hidden range(i64 4, 21) i64 @rb_range_component_beg_len(i64 noundef %0, i64 noundef %1, i32 noundef %2, ptr noundef writeonly captures(none) %3, ptr noundef writeonly captures(none) %4, i64 noundef %5, i32 noundef %6) local_unnamed_addr #0 {
  %8 = icmp eq i64 %0, 4
  br i1 %8, label %rb_num2long_inline.exit, label %9

9:                                                ; preds = %7
  %10 = and i64 %0, 1
  %.not.i = icmp eq i64 %10, 0
  br i1 %.not.i, label %13, label %11

11:                                               ; preds = %9
  %12 = ashr i64 %0, 1
  br label %rb_num2long_inline.exit

13:                                               ; preds = %9
  %14 = tail call i64 @rb_num2long(i64 noundef %0) #13
  br label %rb_num2long_inline.exit

rb_num2long_inline.exit:                          ; preds = %13, %11, %7
  %15 = phi i64 [ 0, %7 ], [ %12, %11 ], [ %14, %13 ]
  %16 = icmp eq i64 %1, 4
  br i1 %16, label %rb_num2long_inline.exit42, label %17

17:                                               ; preds = %rb_num2long_inline.exit
  %18 = and i64 %1, 1
  %.not.i40 = icmp eq i64 %18, 0
  br i1 %.not.i40, label %21, label %19

19:                                               ; preds = %17
  %20 = ashr i64 %1, 1
  br label %rb_num2long_inline.exit42

21:                                               ; preds = %17
  %22 = tail call i64 @rb_num2long(i64 noundef %1) #13
  br label %rb_num2long_inline.exit42

rb_num2long_inline.exit42:                        ; preds = %21, %19, %rb_num2long_inline.exit
  %spec.select = phi i32 [ 0, %rb_num2long_inline.exit ], [ %2, %19 ], [ %2, %21 ]
  %23 = phi i64 [ -1, %rb_num2long_inline.exit ], [ %20, %19 ], [ %22, %21 ]
  %24 = icmp slt i64 %15, 0
  br i1 %24, label %25, label %28

25:                                               ; preds = %rb_num2long_inline.exit42
  %26 = add i64 %15, %5
  %27 = icmp slt i64 %26, 0
  br i1 %27, label %38, label %28

28:                                               ; preds = %25, %rb_num2long_inline.exit42
  %.029 = phi i64 [ %26, %25 ], [ %15, %rb_num2long_inline.exit42 ]
  %29 = icmp slt i64 %23, 0
  %30 = select i1 %29, i64 %5, i64 0
  %.not = icmp eq i32 %spec.select, 0
  %31 = zext i1 %.not to i64
  %spec.select38 = add i64 %23, %31
  %.1 = add i64 %spec.select38, %30
  %32 = and i32 %6, -3
  %or.cond = icmp eq i32 %32, 0
  br i1 %or.cond, label %33, label %36

33:                                               ; preds = %28
  %34 = icmp sgt i64 %.029, %5
  br i1 %34, label %38, label %35

35:                                               ; preds = %33
  %spec.select39 = tail call i64 @llvm.smin.i64(i64 %.1, i64 %5)
  br label %36

36:                                               ; preds = %35, %28
  %.2 = phi i64 [ %.1, %28 ], [ %spec.select39, %35 ]
  %37 = sub i64 %.2, %.029
  %spec.store.select = tail call i64 @llvm.smax.i64(i64 %37, i64 0)
  store i64 %.029, ptr %3, align 8, !tbaa !7
  store i64 %spec.store.select, ptr %4, align 8, !tbaa !7
  br label %38

38:                                               ; preds = %25, %33, %36
  %.030 = phi i64 [ 20, %36 ], [ 4, %33 ], [ 4, %25 ]
  ret i64 %.030
}